target datalayout = "e-m:e-p270:32:32-p271:32:32-p272:64:64-i64:64-i128:128-f80:128-n8:16:32:64-S128"
target triple = "x86_64-unknown-linux-gnu"

%struct.UText = type { i32, i32, i32, i32, i64, i32, i32, i64, i32, i32, ptr, ptr, ptr, ptr, ptr, ptr, ptr, ptr, i64, i32, i32, i64, i32, i32 }

@_ZL13gEmptyUString = internal constant [1 x i16] zeroinitializer, align 2

; Function Attrs: mustprogress nounwind uwtable
define internal noundef signext i8 @_ZL9U_SUCCESS10UErrorCode(i32 noundef %code) #1 {
entry:
  %code.addr = alloca i32, align 4
  store i32 %code, ptr %code.addr, align 4
  %0 = load i32, ptr %code.addr, align 4
  %cmp = icmp sle i32 %0, 0
  %conv = zext i1 %cmp to i8
  ret i8 %conv
}

; Function Attrs: mustprogress nounwind uwtable
define internal noundef signext i8 @_ZL9U_FAILURE10UErrorCode(i32 noundef %code) #1 {
entry:
  %code.addr = alloca i32, align 4
  store i32 %code, ptr %code.addr, align 4
  %0 = load i32, ptr %code.addr, align 4
  %cmp = icmp sgt i32 %0, 0
  %conv = zext i1 %cmp to i8
  ret i8 %conv
}

; Function Attrs: mustprogress uwtable
define ptr @utext_openUChars_75(ptr noundef %ut, ptr noundef %s, i64 noundef %length, ptr noundef %status) #0 {
entry:
  %retval = alloca ptr, align 8
  %ut.addr = alloca ptr, align 8
  %s.addr = alloca ptr, align 8
  %length.addr = alloca i64, align 8
  %status.addr = alloca ptr, align 8
  store ptr %ut, ptr %ut.addr, align 8
  store ptr %s, ptr %s.addr, align 8
  store i64 %length, ptr %length.addr, align 8
  store ptr %status, ptr %status.addr, align 8
  %0 = load ptr, ptr %status.addr, align 8
  %1 = load i32, ptr %0, align 4
  %call = call noundef signext i8 @_ZL9U_FAILURE10UErrorCode(i32 noundef %1)
  %tobool = icmp ne i8 %call, 0
  br i1 %tobool, label %if.then, label %if.end

if.then:                                          ; preds = %entry
  store ptr null, ptr %retval, align 8
  br label %return

if.end:                                           ; preds = %entry
  %2 = load ptr, ptr %s.addr, align 8
  %cmp = icmp eq ptr %2, null
  br i1 %cmp, label %land.lhs.true, label %if.end3

land.lhs.true:                                    ; preds = %if.end
  %3 = load i64, ptr %length.addr, align 8
  %cmp1 = icmp eq i64 %3, 0
  br i1 %cmp1, label %if.then2, label %if.end3

if.then2:                                         ; preds = %land.lhs.true
  store ptr @_ZL13gEmptyUString, ptr %s.addr, align 8
  br label %if.end3

if.end3:                                          ; preds = %if.then2, %land.lhs.true, %if.end
  %4 = load ptr, ptr %s.addr, align 8
  %cmp4 = icmp eq ptr %4, null
  br i1 %cmp4, label %if.then8, label %lor.lhs.false

lor.lhs.false:                                    ; preds = %if.end3
  %5 = load i64, ptr %length.addr, align 8
  %cmp5 = icmp slt i64 %5, -1
  br i1 %cmp5, label %if.then8, label %lor.lhs.false6

lor.lhs.false6:                                   ; preds = %lor.lhs.false
  %6 = load i64, ptr %length.addr, align 8
  %cmp7 = icmp sgt i64 %6, 2147483647
  br i1 %cmp7, label %if.then8, label %if.end9

if.then8:                                         ; preds = %lor.lhs.false6, %lor.lhs.false, %if.end3
  %7 = load ptr, ptr %status.addr, align 8
  store i32 1, ptr %7, align 4
  store ptr null, ptr %retval, align 8
  br label %return

if.end9:                                          ; preds = %lor.lhs.false6
  %8 = load ptr, ptr %ut.addr, align 8
  %9 = load ptr, ptr %status.addr, align 8
  %call10 = call ptr @utext_setup_75(ptr noundef %8, i32 noundef 0, ptr noundef %9)
  store ptr %call10, ptr %ut.addr, align 8
  %10 = load ptr, ptr %status.addr, align 8
  %11 = load i32, ptr %10, align 4
  %call11 = call noundef signext i8 @_ZL9U_SUCCESS10UErrorCode(i32 noundef %11)
  %tobool12 = icmp ne i8 %call11, 0
  br i1 %tobool12, label %if.then13, label %if.end21

if.then13:                                        ; preds = %if.end9
  %12 = load ptr, ptr %ut.addr, align 8
  %pFuncs = getelementptr inbounds %struct.UText, ptr %12, i32 0, i32 11
  store ptr @_ZL10ucstrFuncs, ptr %pFuncs, align 8
  %13 = load ptr, ptr %s.addr, align 8
  %14 = load ptr, ptr %ut.addr, align 8
  %context = getelementptr inbounds %struct.UText, ptr %14, i32 0, i32 13
  store ptr %13, ptr %context, align 8
  %15 = load ptr, ptr %ut.addr, align 8
  %providerProperties = getelementptr inbounds %struct.UText, ptr %15, i32 0, i32 2
  store i32 4, ptr %providerProperties, align 8
  %16 = load i64, ptr %length.addr, align 8
  %cmp14 = icmp eq i64 %16, -1
  br i1 %cmp14, label %if.then15, label %if.end17

if.then15:                                        ; preds = %if.then13
  %17 = load ptr, ptr %ut.addr, align 8
  %providerProperties16 = getelementptr inbounds %struct.UText, ptr %17, i32 0, i32 2
  %18 = load i32, ptr %providerProperties16, align 8
  %or = or i32 %18, 2
  store i32 %or, ptr %providerProperties16, align 8
  br label %if.end17

if.end17:                                         ; preds = %if.then15, %if.then13
  %19 = load i64, ptr %length.addr, align 8
  %20 = load ptr, ptr %ut.addr, align 8
  %a = getelementptr inbounds %struct.UText, ptr %20, i32 0, i32 18
  store i64 %19, ptr %a, align 8
  %21 = load ptr, ptr %s.addr, align 8
  %22 = load ptr, ptr %ut.addr, align 8
  %chunkContents = getelementptr inbounds %struct.UText, ptr %22, i32 0, i32 10
  store ptr %21, ptr %chunkContents, align 8
  %23 = load ptr, ptr %ut.addr, align 8
  %chunkNativeStart = getelementptr inbounds %struct.UText, ptr %23, i32 0, i32 7
  store i64 0, ptr %chunkNativeStart, align 8
  %24 = load i64, ptr %length.addr, align 8
  %cmp18 = icmp sge i64 %24, 0
  br i1 %cmp18, label %cond.true, label %cond.false

cond.true:                                        ; preds = %if.end17
  %25 = load i64, ptr %length.addr, align 8
  br label %cond.end

cond.false:                                       ; preds = %if.end17
  br label %cond.end

cond.end:                                         ; preds = %cond.false, %cond.true
  %cond = phi i64 [ %25, %cond.true ], [ 0, %cond.false ]
  %26 = load ptr, ptr %ut.addr, align 8
  %chunkNativeLimit = getelementptr inbounds %struct.UText, ptr %26, i32 0, i32 4
  store i64 %cond, ptr %chunkNativeLimit, align 8
  %27 = load ptr, ptr %ut.addr, align 8
  %chunkNativeLimit19 = getelementptr inbounds %struct.UText, ptr %27, i32 0, i32 4
  %28 = load i64, ptr %chunkNativeLimit19, align 8
  %conv = trunc i64 %28 to i32
  %29 = load ptr, ptr %ut.addr, align 8
  %chunkLength = getelementptr inbounds %struct.UText, ptr %29, i32 0, i32 9
  store i32 %conv, ptr %chunkLength, align 4
  %30 = load ptr, ptr %ut.addr, align 8
  %chunkOffset = getelementptr inbounds %struct.UText, ptr %30, i32 0, i32 8
  store i32 0, ptr %chunkOffset, align 8
  %31 = load ptr, ptr %ut.addr, align 8
  %chunkLength20 = getelementptr inbounds %struct.UText, ptr %31, i32 0, i32 9
  %32 = load i32, ptr %chunkLength20, align 4
  %33 = load ptr, ptr %ut.addr, align 8
  %nativeIndexingLimit = getelementptr inbounds %struct.UText, ptr %33, i32 0, i32 6
  store i32 %32, ptr %nativeIndexingLimit, align 4
  br label %if.end21

if.end21:                                         ; preds = %cond.end, %if.end9
  %34 = load ptr, ptr %ut.addr, align 8
  store ptr %34, ptr %retval, align 8
  br label %return

return:                                           ; preds = %if.end21, %if.then8, %if.then
  %35 = load ptr, ptr %retval, align 8
  ret ptr %35
}