; Function Attrs: mustprogress uwtable
define ptr @utext_openUChars_75(ptr noundef %ut, ptr noundef %s, i64 noundef %length, ptr nocapture noundef %status) local_unnamed_addr #0 {
entry:
  %0 = load i32, ptr %status, align 4
  %cmp.i = icmp slt i32 %0, 1
  br i1 %cmp.i, label %if.end, label %return

if.end:                                           ; preds = %entry
  %cmp = icmp eq ptr %s, null
  %cmp1 = icmp eq i64 %length, 0
  %or.cond = and i1 %cmp, %cmp1
  %spec.store.select = select i1 %or.cond, ptr @_ZL13gEmptyUString, ptr %s
  %cmp4 = icmp eq ptr %spec.store.select, null
  %1 = add i64 %length, -2147483648
  %2 = icmp ult i64 %1, -2147483649
  %or.cond2 = or i1 %2, %cmp4
  br i1 %or.cond2, label %if.then8, label %if.end9

if.then8:                                         ; preds = %if.end
  store i32 1, ptr %status, align 4
  br label %return

if.end9:                                          ; preds = %if.end
  %call10 = tail call ptr @utext_setup_75(ptr noundef %ut, i32 noundef 0, ptr noundef nonnull %status)
  %3 = load i32, ptr %status, align 4
  %cmp.i29 = icmp sgt i32 %3, 0
  br i1 %cmp.i29, label %return, label %if.then13

if.then13:                                        ; preds = %if.end9
  %pFuncs = getelementptr inbounds i8, ptr %call10, i64 56
  store ptr @_ZL10ucstrFuncs, ptr %pFuncs, align 8
  %context = getelementptr inbounds i8, ptr %call10, i64 72
  store ptr %spec.store.select, ptr %context, align 8
  %providerProperties = getelementptr inbounds i8, ptr %call10, i64 8
  %cmp14 = icmp eq i64 %length, -1
  %spec.select = select i1 %cmp14, i32 6, i32 4
  store i32 %spec.select, ptr %providerProperties, align 8
  %a = getelementptr inbounds i8, ptr %call10, i64 112
  store i64 %length, ptr %a, align 8
  %chunkContents = getelementptr inbounds i8, ptr %call10, i64 48
  store ptr %spec.store.select, ptr %chunkContents, align 8
  %chunkNativeStart = getelementptr inbounds i8, ptr %call10, i64 32
  store i64 0, ptr %chunkNativeStart, align 8
  %cond = tail call i64 @llvm.smax.i64(i64 %length, i64 0)
  %chunkNativeLimit = getelementptr inbounds i8, ptr %call10, i64 16
  store i64 %cond, ptr %chunkNativeLimit, align 8
  %conv = trunc i64 %cond to i32
  %chunkLength = getelementptr inbounds i8, ptr %call10, i64 44
  store i32 %conv, ptr %chunkLength, align 4
  %chunkOffset = getelementptr inbounds i8, ptr %call10, i64 40
  store i32 0, ptr %chunkOffset, align 8
  %nativeIndexingLimit = getelementptr inbounds i8, ptr %call10, i64 28
  store i32 %conv, ptr %nativeIndexingLimit, align 4
  br label %return

return:                                           ; preds = %if.end9, %if.then13, %entry, %if.then8
  %retval.0 = phi ptr [ null, %if.then8 ], [ null, %entry ], [ %call10, %if.then13 ], [ %call10, %if.end9 ]
  ret ptr %retval.0
}